(lp0
F0.165532
aF0.333739
aF0.49597500000000005
aF0.642979
aF0.8189449999999998
aF0.9677599999999997
aF1.1408179999999994
aF1.3073620000000004
aF1.8619850000000007
aF1.9567420000000002
aF1.8108869999999992
aF1.945862
aF2.111305999999999
aF2.286868000000002
aF2.483366
aF2.60858
a.