(lp0
F1.3702589999999972
aF4.1642019999999995
aF8.298549999999999
aF13.115085
aF19.60962200000001
aF28.883651999999998
aF36.02866300000001
aF42.20275000000001
aF57.64506499999999
aF67.35120999999998
aF78.81710600000002
aF88.799692
aF103.33805799999999
a.