(lp0
F19.688259000000002
aF27.799621999999992
aF26.71120400000001
aF33.86988000000001
aF38.920108
aF34.90270099999998
aF40.91744299999999
aF43.275807999999984
aF40.235297
aF45.78570000000002
aF51.756528
aF45.109578
aF49.91584800000004
aF52.22642399999995
aF49.325980999999956
aF53.55617200000006
a.