(lp0
F0.448213
aF0.539885
aF0.6582159999999999
aF0.7939289999999999
aF0.9300160000000002
aF1.23006
aF1.3517220000000005
aF1.3299960000000004
aF1.4552260000000015
aF1.5646450000000005
aF1.681025
aF1.8222269999999998
aF1.9339809999999993
aF2.0977770000000007
aF2.2173370000000006
aF2.315607
a.